target datalayout = "e-m:e-p270:32:32-p271:32:32-p272:64:64-i64:64-i128:128-f80:128-n8:16:32:64-S128"
target triple = "x86_64-pc-linux-gnu"

%struct.AVProbeData = type { ptr, ptr, i32, ptr }

@.str.232 = private unnamed_addr constant [8 x i8] c"c=IN IP\00", align 1

; Function Attrs: nounwind uwtable
define internal i32 @sdp_probe(ptr noundef %0) #0 {
  %2 = alloca i32, align 4
  %3 = alloca ptr, align 8
  %4 = alloca ptr, align 8
  %5 = alloca ptr, align 8
  %6 = alloca i32, align 4
  store ptr %0, ptr %3, align 8, !tbaa !223
  call void @llvm.lifetime.start.p0(i64 8, ptr %4) #13
  %7 = load ptr, ptr %3, align 8, !tbaa !223
  %8 = getelementptr inbounds nuw %struct.AVProbeData, ptr %7, i32 0, i32 1
  %9 = load ptr, ptr %8, align 8, !tbaa !225
  store ptr %9, ptr %4, align 8, !tbaa !10
  call void @llvm.lifetime.start.p0(i64 8, ptr %5) #13
  %10 = load ptr, ptr %3, align 8, !tbaa !223
  %11 = getelementptr inbounds nuw %struct.AVProbeData, ptr %10, i32 0, i32 1
  %12 = load ptr, ptr %11, align 8, !tbaa !225
  %13 = load ptr, ptr %3, align 8, !tbaa !223
  %14 = getelementptr inbounds nuw %struct.AVProbeData, ptr %13, i32 0, i32 2
  %15 = load i32, ptr %14, align 8, !tbaa !227
  %16 = sext i32 %15 to i64
  %17 = getelementptr inbounds i8, ptr %12, i64 %16
  store ptr %17, ptr %5, align 8, !tbaa !10
  br label %18

18:                                               ; preds = %71, %1
  %19 = load ptr, ptr %4, align 8, !tbaa !10
  %20 = load ptr, ptr %5, align 8, !tbaa !10
  %21 = icmp ult ptr %19, %20
  br i1 %21, label %22, label %27

22:                                               ; preds = %18
  %23 = load ptr, ptr %4, align 8, !tbaa !10
  %24 = load i8, ptr %23, align 1, !tbaa !14
  %25 = sext i8 %24 to i32
  %26 = icmp ne i32 %25, 0
  br label %27

27:                                               ; preds = %22, %18
  %28 = phi i1 [ false, %18 ], [ %26, %22 ]
  br i1 %28, label %29, label %72

29:                                               ; preds = %27
  %30 = load ptr, ptr %5, align 8, !tbaa !10
  %31 = load ptr, ptr %4, align 8, !tbaa !10
  %32 = ptrtoint ptr %30 to i64
  %33 = ptrtoint ptr %31 to i64
  %34 = sub i64 %32, %33
  %35 = icmp ult i64 7, %34
  br i1 %35, label %36, label %41

36:                                               ; preds = %29
  %37 = load ptr, ptr %4, align 8, !tbaa !10
  %38 = call i32 @av_strstart(ptr noundef %37, ptr noundef @.str.232, ptr noundef null)
  %39 = icmp ne i32 %38, 0
  br i1 %39, label %40, label %41

40:                                               ; preds = %36
  store i32 50, ptr %2, align 4
  store i32 1, ptr %6, align 4
  br label %73

41:                                               ; preds = %36, %29
  br label %42

42:                                               ; preds = %54, %41
  %43 = load ptr, ptr %4, align 8, !tbaa !10
  %44 = load ptr, ptr %5, align 8, !tbaa !10
  %45 = getelementptr inbounds i8, ptr %44, i64 -1
  %46 = icmp ult ptr %43, %45
  br i1 %46, label %47, label %52

47:                                               ; preds = %42
  %48 = load ptr, ptr %4, align 8, !tbaa !10
  %49 = load i8, ptr %48, align 1, !tbaa !14
  %50 = sext i8 %49 to i32
  %51 = icmp ne i32 %50, 10
  br label %52

52:                                               ; preds = %47, %42
  %53 = phi i1 [ false, %42 ], [ %51, %47 ]
  br i1 %53, label %54, label %57

54:                                               ; preds = %52
  %55 = load ptr, ptr %4, align 8, !tbaa !10
  %56 = getelementptr inbounds nuw i8, ptr %55, i32 1
  store ptr %56, ptr %4, align 8, !tbaa !10
  br label %42, !llvm.loop !228

57:                                               ; preds = %52
  %58 = load ptr, ptr %4, align 8, !tbaa !10
  %59 = getelementptr inbounds nuw i8, ptr %58, i32 1
  store ptr %59, ptr %4, align 8, !tbaa !10
  %60 = load ptr, ptr %5, align 8, !tbaa !10
  %61 = icmp uge ptr %59, %60
  br i1 %61, label %62, label %63

62:                                               ; preds = %57
  br label %72

63:                                               ; preds = %57
  %64 = load ptr, ptr %4, align 8, !tbaa !10
  %65 = load i8, ptr %64, align 1, !tbaa !14
  %66 = sext i8 %65 to i32
  %67 = icmp eq i32 %66, 13
  br i1 %67, label %68, label %71

68:                                               ; preds = %63
  %69 = load ptr, ptr %4, align 8, !tbaa !10
  %70 = getelementptr inbounds nuw i8, ptr %69, i32 1
  store ptr %70, ptr %4, align 8, !tbaa !10
  br label %71

71:                                               ; preds = %68, %63
  br label %18, !llvm.loop !229

72:                                               ; preds = %62, %27
  store i32 0, ptr %2, align 4
  store i32 1, ptr %6, align 4
  br label %73

73:                                               ; preds = %72, %40
  call void @llvm.lifetime.end.p0(i64 8, ptr %5) #13
  call void @llvm.lifetime.end.p0(i64 8, ptr %4) #13
  %74 = load i32, ptr %2, align 4
  ret i32 %74
}