; Function Attrs: nounwind uwtable
define internal range(i32 0, 51) i32 @sdp_probe(ptr noundef readonly captures(none) %0) #2 {
  %2 = getelementptr inbounds nuw i8, ptr %0, i64 8
  %3 = load ptr, ptr %2, align 8, !tbaa !240
  %4 = getelementptr inbounds nuw i8, ptr %0, i64 16
  %5 = load i32, ptr %4, align 8, !tbaa !241
  %6 = sext i32 %5 to i64
  %7 = getelementptr inbounds i8, ptr %3, i64 %6
  %8 = icmp sgt i32 %5, 0
  br i1 %8, label %.lr.ph29, label %.critedge

.lr.ph29:                                         ; preds = %1
  %9 = ptrtoint ptr %7 to i64
  %10 = getelementptr inbounds i8, ptr %7, i64 -1
  br label %11

11:                                               ; preds = %.lr.ph29, %26
  %.01928 = phi ptr [ %3, %.lr.ph29 ], [ %spec.select, %26 ]
  %12 = load i8, ptr %.01928, align 1, !tbaa !9
  %.not = icmp eq i8 %12, 0
  br i1 %.not, label %.critedge, label %13

13:                                               ; preds = %11
  %14 = ptrtoint ptr %.01928 to i64
  %15 = sub i64 %9, %14
  %16 = icmp ugt i64 %15, 7
  br i1 %16, label %17, label %19

17:                                               ; preds = %13
  %18 = tail call i32 @av_strstart(ptr noundef nonnull %.01928, ptr noundef nonnull @.str.232, ptr noundef null) #15
  %.not22 = icmp eq i32 %18, 0
  br i1 %.not22, label %19, label %.critedge

19:                                               ; preds = %17, %13
  %20 = icmp ult ptr %.01928, %10
  br i1 %20, label %.lr.ph, label %.critedge2

.lr.ph:                                           ; preds = %19, %22
  %.125 = phi ptr [ %23, %22 ], [ %.01928, %19 ]
  %21 = load i8, ptr %.125, align 1, !tbaa !9
  %.not23 = icmp eq i8 %21, 10
  br i1 %.not23, label %.critedge2, label %22

22:                                               ; preds = %.lr.ph
  %23 = getelementptr inbounds nuw i8, ptr %.125, i64 1
  %24 = icmp ult ptr %23, %10
  br i1 %24, label %.lr.ph, label %.critedge2, !llvm.loop !242

.critedge2:                                       ; preds = %.lr.ph, %22, %19
  %.1.lcssa = phi ptr [ %.01928, %19 ], [ %23, %22 ], [ %.125, %.lr.ph ]
  %25 = getelementptr inbounds nuw i8, ptr %.1.lcssa, i64 1
  %.not24 = icmp ult ptr %25, %7
  br i1 %.not24, label %26, label %.critedge

26:                                               ; preds = %.critedge2
  %27 = load i8, ptr %25, align 1, !tbaa !9
  %28 = icmp eq i8 %27, 13
  %29 = getelementptr inbounds nuw i8, ptr %.1.lcssa, i64 2
  %spec.select = select i1 %28, ptr %29, ptr %25
  %30 = icmp ult ptr %spec.select, %7
  br i1 %30, label %11, label %.critedge, !llvm.loop !243

.critedge:                                        ; preds = %17, %26, %.critedge2, %11, %1
  %.0 = phi i32 [ 0, %1 ], [ 0, %11 ], [ 0, %.critedge2 ], [ 0, %26 ], [ 50, %17 ]
  ret i32 %.0
}